target datalayout = "e-m:e-p270:32:32-p271:32:32-p272:64:64-i64:64-i128:128-f80:128-n8:16:32:64-S128"
target triple = "x86_64-pc-linux-gnu"

%struct._e_guid_t = type { i32, i16, i16, [8 x i8] }
%struct._dcerpc_info = type { ptr, i32, i64, i8, i8, i8, i32, i32, i32, i32, i32, i32, i32, i32, ptr, ptr, ptr, ptr, %struct.anon }
%struct.anon = type { i8, ptr, ptr, ptr, i8 }
%struct._dcerpc_call_value = type { %struct._e_guid_t, i16, %struct._e_guid_t, i16, i32, %struct.nstime_t, i32, i32, ptr, ptr, ptr, i32 }
%struct.nstime_t = type { i64, i32 }

@ett_netdfs_dfs_Info6 = internal global i32 0, align 4
@hf_netdfs_dfs_Info6_comment = internal global i32 0, align 4
@hf_netdfs_dfs_Info6_entry_path = internal global i32 0, align 4
@hf_netdfs_dfs_Info6_flags = internal global i32 0, align 4
@hf_netdfs_dfs_Info6_guid = internal global i32 0, align 4
@hf_netdfs_dfs_Info6_num_stores = internal global i32 0, align 4
@hf_netdfs_dfs_Info6_pktsize = internal global i32 0, align 4
@hf_netdfs_dfs_Info6_state = internal global i32 0, align 4
@hf_netdfs_dfs_Info6_stores = internal global i32 0, align 4
@hf_netdfs_dfs_Info6_timeout = internal global i32 0, align 4
@.str.262 = private unnamed_addr constant [28 x i8] c"Pointer to Comment (uint16)\00", align 1
@.str.266 = private unnamed_addr constant [31 x i8] c"Pointer to Entry Path (uint16)\00", align 1
@.str.267 = private unnamed_addr constant [37 x i8] c"Pointer to Stores (dfs_StorageInfo2)\00", align 1

; Function Attrs: null_pointer_is_valid sspstrong uwtable
define internal i32 @netdfs_dissect_element_dfs_Info6_stores(ptr noundef %0, i32 noundef %1, ptr noundef %2, ptr noundef %3, ptr noundef %4, ptr noundef %5) #0 {
  %7 = alloca ptr, align 8
  %8 = alloca i32, align 4
  %9 = alloca ptr, align 8
  %10 = alloca ptr, align 8
  %11 = alloca ptr, align 8
  %12 = alloca ptr, align 8
  store ptr %0, ptr %7, align 8
  store i32 %1, ptr %8, align 4
  store ptr %2, ptr %9, align 8
  store ptr %3, ptr %10, align 8
  store ptr %4, ptr %11, align 8
  store ptr %5, ptr %12, align 8
  %13 = load ptr, ptr %7, align 8
  %14 = load i32, ptr %8, align 4
  %15 = load ptr, ptr %9, align 8
  %16 = load ptr, ptr %10, align 8
  %17 = load ptr, ptr %11, align 8
  %18 = load ptr, ptr %12, align 8
  %19 = load i32, ptr @hf_netdfs_dfs_Info6_stores, align 4
  %20 = call i32 @dissect_ndr_embedded_pointer(ptr noundef %13, i32 noundef %14, ptr noundef %15, ptr noundef %16, ptr noundef %17, ptr noundef %18, ptr noundef @netdfs_dissect_element_dfs_Info6_stores_, i32 noundef 2, ptr noundef @.str.267, i32 noundef %19)
  store i32 %20, ptr %8, align 4
  %21 = load i32, ptr %8, align 4
  ret i32 %21
}

; Function Attrs: null_pointer_is_valid sspstrong uwtable
define internal i32 @netdfs_dissect_element_dfs_Info6_num_stores(ptr noundef %0, i32 noundef %1, ptr noundef %2, ptr noundef %3, ptr noundef %4, ptr noundef %5) #0 {
  %7 = alloca ptr, align 8
  %8 = alloca i32, align 4
  %9 = alloca ptr, align 8
  %10 = alloca ptr, align 8
  %11 = alloca ptr, align 8
  %12 = alloca ptr, align 8
  store ptr %0, ptr %7, align 8
  store i32 %1, ptr %8, align 4
  store ptr %2, ptr %9, align 8
  store ptr %3, ptr %10, align 8
  store ptr %4, ptr %11, align 8
  store ptr %5, ptr %12, align 8
  %13 = load ptr, ptr %7, align 8
  %14 = load i32, ptr %8, align 4
  %15 = load ptr, ptr %9, align 8
  %16 = load ptr, ptr %10, align 8
  %17 = load ptr, ptr %11, align 8
  %18 = load ptr, ptr %12, align 8
  %19 = load i32, ptr @hf_netdfs_dfs_Info6_num_stores, align 4
  %20 = call i32 @PIDL_dissect_uint16(ptr noundef %13, i32 noundef %14, ptr noundef %15, ptr noundef %16, ptr noundef %17, ptr noundef %18, i32 noundef %19, i32 noundef 0)
  store i32 %20, ptr %8, align 4
  %21 = load i32, ptr %8, align 4
  ret i32 %21
}

; Function Attrs: null_pointer_is_valid sspstrong uwtable
define internal i32 @netdfs_dissect_element_dfs_Info6_pktsize(ptr noundef %0, i32 noundef %1, ptr noundef %2, ptr noundef %3, ptr noundef %4, ptr noundef %5) #0 {
  %7 = alloca ptr, align 8
  %8 = alloca i32, align 4
  %9 = alloca ptr, align 8
  %10 = alloca ptr, align 8
  %11 = alloca ptr, align 8
  %12 = alloca ptr, align 8
  store ptr %0, ptr %7, align 8
  store i32 %1, ptr %8, align 4
  store ptr %2, ptr %9, align 8
  store ptr %3, ptr %10, align 8
  store ptr %4, ptr %11, align 8
  store ptr %5, ptr %12, align 8
  %13 = load ptr, ptr %7, align 8
  %14 = load i32, ptr %8, align 4
  %15 = load ptr, ptr %9, align 8
  %16 = load ptr, ptr %10, align 8
  %17 = load ptr, ptr %11, align 8
  %18 = load ptr, ptr %12, align 8
  %19 = load i32, ptr @hf_netdfs_dfs_Info6_pktsize, align 4
  %20 = call i32 @PIDL_dissect_uint32(ptr noundef %13, i32 noundef %14, ptr noundef %15, ptr noundef %16, ptr noundef %17, ptr noundef %18, i32 noundef %19, i32 noundef 0)
  store i32 %20, ptr %8, align 4
  %21 = load i32, ptr %8, align 4
  ret i32 %21
}

; Function Attrs: null_pointer_is_valid sspstrong uwtable
define internal i32 @netdfs_dissect_element_dfs_Info6_flags(ptr noundef %0, i32 noundef %1, ptr noundef %2, ptr noundef %3, ptr noundef %4, ptr noundef %5) #0 {
  %7 = alloca ptr, align 8
  %8 = alloca i32, align 4
  %9 = alloca ptr, align 8
  %10 = alloca ptr, align 8
  %11 = alloca ptr, align 8
  %12 = alloca ptr, align 8
  store ptr %0, ptr %7, align 8
  store i32 %1, ptr %8, align 4
  store ptr %2, ptr %9, align 8
  store ptr %3, ptr %10, align 8
  store ptr %4, ptr %11, align 8
  store ptr %5, ptr %12, align 8
  %13 = load ptr, ptr %7, align 8
  %14 = load i32, ptr %8, align 4
  %15 = load ptr, ptr %9, align 8
  %16 = load ptr, ptr %10, align 8
  %17 = load ptr, ptr %11, align 8
  %18 = load ptr, ptr %12, align 8
  %19 = load i32, ptr @hf_netdfs_dfs_Info6_flags, align 4
  %20 = call i32 @netdfs_dissect_bitmap_dfs_PropertyFlags(ptr noundef %13, i32 noundef %14, ptr noundef %15, ptr noundef %16, ptr noundef %17, ptr noundef %18, i32 noundef %19, i32 noundef 0)
  store i32 %20, ptr %8, align 4
  %21 = load i32, ptr %8, align 4
  ret i32 %21
}

; Function Attrs: null_pointer_is_valid sspstrong uwtable
define internal i32 @netdfs_dissect_element_dfs_Info6_guid(ptr noundef %0, i32 noundef %1, ptr noundef %2, ptr noundef %3, ptr noundef %4, ptr noundef %5) #0 {
  %7 = alloca ptr, align 8
  %8 = alloca i32, align 4
  %9 = alloca ptr, align 8
  %10 = alloca ptr, align 8
  %11 = alloca ptr, align 8
  %12 = alloca ptr, align 8
  store ptr %0, ptr %7, align 8
  store i32 %1, ptr %8, align 4
  store ptr %2, ptr %9, align 8
  store ptr %3, ptr %10, align 8
  store ptr %4, ptr %11, align 8
  store ptr %5, ptr %12, align 8
  %13 = load ptr, ptr %7, align 8
  %14 = load i32, ptr %8, align 4
  %15 = load ptr, ptr %9, align 8
  %16 = load ptr, ptr %10, align 8
  %17 = load ptr, ptr %11, align 8
  %18 = load ptr, ptr %12, align 8
  %19 = load i32, ptr @hf_netdfs_dfs_Info6_guid, align 4
  %20 = call i32 @dissect_ndr_uuid_t(ptr noundef %13, i32 noundef %14, ptr noundef %15, ptr noundef %16, ptr noundef %17, ptr noundef %18, i32 noundef %19, ptr noundef null)
  store i32 %20, ptr %8, align 4
  %21 = load i32, ptr %8, align 4
  ret i32 %21
}

; Function Attrs: null_pointer_is_valid sspstrong uwtable
define internal i32 @netdfs_dissect_element_dfs_Info6_timeout(ptr noundef %0, i32 noundef %1, ptr noundef %2, ptr noundef %3, ptr noundef %4, ptr noundef %5) #0 {
  %7 = alloca ptr, align 8
  %8 = alloca i32, align 4
  %9 = alloca ptr, align 8
  %10 = alloca ptr, align 8
  %11 = alloca ptr, align 8
  %12 = alloca ptr, align 8
  store ptr %0, ptr %7, align 8
  store i32 %1, ptr %8, align 4
  store ptr %2, ptr %9, align 8
  store ptr %3, ptr %10, align 8
  store ptr %4, ptr %11, align 8
  store ptr %5, ptr %12, align 8
  %13 = load ptr, ptr %7, align 8
  %14 = load i32, ptr %8, align 4
  %15 = load ptr, ptr %9, align 8
  %16 = load ptr, ptr %10, align 8
  %17 = load ptr, ptr %11, align 8
  %18 = load ptr, ptr %12, align 8
  %19 = load i32, ptr @hf_netdfs_dfs_Info6_timeout, align 4
  %20 = call i32 @PIDL_dissect_uint32(ptr noundef %13, i32 noundef %14, ptr noundef %15, ptr noundef %16, ptr noundef %17, ptr noundef %18, i32 noundef %19, i32 noundef 0)
  store i32 %20, ptr %8, align 4
  %21 = load i32, ptr %8, align 4
  ret i32 %21
}

; Function Attrs: null_pointer_is_valid sspstrong uwtable
define internal i32 @netdfs_dissect_element_dfs_Info6_state(ptr noundef %0, i32 noundef %1, ptr noundef %2, ptr noundef %3, ptr noundef %4, ptr noundef %5) #0 {
  %7 = alloca ptr, align 8
  %8 = alloca i32, align 4
  %9 = alloca ptr, align 8
  %10 = alloca ptr, align 8
  %11 = alloca ptr, align 8
  %12 = alloca ptr, align 8
  store ptr %0, ptr %7, align 8
  store i32 %1, ptr %8, align 4
  store ptr %2, ptr %9, align 8
  store ptr %3, ptr %10, align 8
  store ptr %4, ptr %11, align 8
  store ptr %5, ptr %12, align 8
  %13 = load ptr, ptr %7, align 8
  %14 = load i32, ptr %8, align 4
  %15 = load ptr, ptr %9, align 8
  %16 = load ptr, ptr %10, align 8
  %17 = load ptr, ptr %11, align 8
  %18 = load ptr, ptr %12, align 8
  %19 = load i32, ptr @hf_netdfs_dfs_Info6_state, align 4
  %20 = call i32 @netdfs_dissect_bitmap_dfs_VolumeState(ptr noundef %13, i32 noundef %14, ptr noundef %15, ptr noundef %16, ptr noundef %17, ptr noundef %18, i32 noundef %19, i32 noundef 0)
  store i32 %20, ptr %8, align 4
  %21 = load i32, ptr %8, align 4
  ret i32 %21
}

; Function Attrs: null_pointer_is_valid sspstrong uwtable
define internal i32 @netdfs_dissect_element_dfs_Info6_comment(ptr noundef %0, i32 noundef %1, ptr noundef %2, ptr noundef %3, ptr noundef %4, ptr noundef %5) #0 {
  %7 = alloca ptr, align 8
  %8 = alloca i32, align 4
  %9 = alloca ptr, align 8
  %10 = alloca ptr, align 8
  %11 = alloca ptr, align 8
  %12 = alloca ptr, align 8
  store ptr %0, ptr %7, align 8
  store i32 %1, ptr %8, align 4
  store ptr %2, ptr %9, align 8
  store ptr %3, ptr %10, align 8
  store ptr %4, ptr %11, align 8
  store ptr %5, ptr %12, align 8
  %13 = load ptr, ptr %7, align 8
  %14 = load i32, ptr %8, align 4
  %15 = load ptr, ptr %9, align 8
  %16 = load ptr, ptr %10, align 8
  %17 = load ptr, ptr %11, align 8
  %18 = load ptr, ptr %12, align 8
  %19 = load i32, ptr @hf_netdfs_dfs_Info6_comment, align 4
  %20 = call i32 @dissect_ndr_embedded_pointer(ptr noundef %13, i32 noundef %14, ptr noundef %15, ptr noundef %16, ptr noundef %17, ptr noundef %18, ptr noundef @netdfs_dissect_element_dfs_Info6_comment_, i32 noundef 2, ptr noundef @.str.262, i32 noundef %19)
  store i32 %20, ptr %8, align 4
  %21 = load i32, ptr %8, align 4
  ret i32 %21
}

; Function Attrs: null_pointer_is_valid sspstrong uwtable
define internal i32 @netdfs_dissect_element_dfs_Info6_entry_path(ptr noundef %0, i32 noundef %1, ptr noundef %2, ptr noundef %3, ptr noundef %4, ptr noundef %5) #0 {
  %7 = alloca ptr, align 8
  %8 = alloca i32, align 4
  %9 = alloca ptr, align 8
  %10 = alloca ptr, align 8
  %11 = alloca ptr, align 8
  %12 = alloca ptr, align 8
  store ptr %0, ptr %7, align 8
  store i32 %1, ptr %8, align 4
  store ptr %2, ptr %9, align 8
  store ptr %3, ptr %10, align 8
  store ptr %4, ptr %11, align 8
  store ptr %5, ptr %12, align 8
  %13 = load ptr, ptr %7, align 8
  %14 = load i32, ptr %8, align 4
  %15 = load ptr, ptr %9, align 8
  %16 = load ptr, ptr %10, align 8
  %17 = load ptr, ptr %11, align 8
  %18 = load ptr, ptr %12, align 8
  %19 = load i32, ptr @hf_netdfs_dfs_Info6_entry_path, align 4
  %20 = call i32 @dissect_ndr_embedded_pointer(ptr noundef %13, i32 noundef %14, ptr noundef %15, ptr noundef %16, ptr noundef %17, ptr noundef %18, ptr noundef @netdfs_dissect_element_dfs_Info6_entry_path_, i32 noundef 2, ptr noundef @.str.266, i32 noundef %19)
  store i32 %20, ptr %8, align 4
  %21 = load i32, ptr %8, align 4
  ret i32 %21
}

; Function Attrs: null_pointer_is_valid sspstrong uwtable
define hidden i32 @netdfs_dissect_struct_dfs_Info6(ptr noundef %0, i32 noundef %1, ptr noundef %2, ptr noundef %3, ptr noundef %4, ptr noundef %5, i32 noundef %6, i32 noundef %7) #0 {
  %9 = alloca ptr, align 8
  %10 = alloca i32, align 4
  %11 = alloca ptr, align 8
  %12 = alloca ptr, align 8
  %13 = alloca ptr, align 8
  %14 = alloca ptr, align 8
  %15 = alloca i32, align 4
  %16 = alloca i32, align 4
  %17 = alloca ptr, align 8
  %18 = alloca ptr, align 8
  %19 = alloca i32, align 4
  store ptr %0, ptr %9, align 8
  store i32 %1, ptr %10, align 4
  store ptr %2, ptr %11, align 8
  store ptr %3, ptr %12, align 8
  store ptr %4, ptr %13, align 8
  store ptr %5, ptr %14, align 8
  store i32 %6, ptr %15, align 4
  store i32 %7, ptr %16, align 4
  call void @llvm.lifetime.start.p0(i64 8, ptr %17) #4
  store ptr null, ptr %17, align 8
  call void @llvm.lifetime.start.p0(i64 8, ptr %18) #4
  store ptr null, ptr %18, align 8
  call void @llvm.lifetime.start.p0(i64 4, ptr %19) #4
  %20 = load ptr, ptr %13, align 8
  %21 = getelementptr inbounds nuw %struct._dcerpc_info, ptr %20, i32 0, i32 14
  %22 = load ptr, ptr %21, align 8
  %23 = getelementptr inbounds nuw %struct._dcerpc_call_value, ptr %22, i32 0, i32 11
  %24 = load i32, ptr %23, align 8
  %25 = and i32 %24, 1
  %26 = icmp ne i32 %25, 0
  br i1 %26, label %27, label %42

27:                                               ; preds = %8
  %28 = load ptr, ptr %13, align 8
  %29 = getelementptr inbounds nuw %struct._dcerpc_info, ptr %28, i32 0, i32 4
  %30 = load i8, ptr %29, align 1, !range !6, !noundef !7
  %31 = trunc i8 %30 to i1
  br i1 %31, label %41, label %32

32:                                               ; preds = %27
  %33 = load i32, ptr %10, align 4
  %34 = and i32 %33, 7
  %35 = icmp ne i32 %34, 0
  br i1 %35, label %36, label %40

36:                                               ; preds = %32
  %37 = load i32, ptr %10, align 4
  %38 = and i32 %37, -8
  %39 = add i32 %38, 8
  store i32 %39, ptr %10, align 4
  br label %40

40:                                               ; preds = %36, %32
  br label %41

41:                                               ; preds = %40, %27
  br label %57

42:                                               ; preds = %8
  %43 = load ptr, ptr %13, align 8
  %44 = getelementptr inbounds nuw %struct._dcerpc_info, ptr %43, i32 0, i32 4
  %45 = load i8, ptr %44, align 1, !range !6, !noundef !7
  %46 = trunc i8 %45 to i1
  br i1 %46, label %56, label %47

47:                                               ; preds = %42
  %48 = load i32, ptr %10, align 4
  %49 = and i32 %48, 3
  %50 = icmp ne i32 %49, 0
  br i1 %50, label %51, label %55

51:                                               ; preds = %47
  %52 = load i32, ptr %10, align 4
  %53 = and i32 %52, -4
  %54 = add i32 %53, 4
  store i32 %54, ptr %10, align 4
  br label %55

55:                                               ; preds = %51, %47
  br label %56

56:                                               ; preds = %55, %42
  br label %57

57:                                               ; preds = %56, %41
  %58 = load i32, ptr %10, align 4
  store i32 %58, ptr %19, align 4
  %59 = load ptr, ptr %12, align 8
  %60 = icmp ne ptr %59, null
  br i1 %60, label %61, label %70

61:                                               ; preds = %57
  %62 = load ptr, ptr %12, align 8
  %63 = load i32, ptr %15, align 4
  %64 = load ptr, ptr %9, align 8
  %65 = load i32, ptr %10, align 4
  %66 = call ptr @proto_tree_add_item(ptr noundef %62, i32 noundef %63, ptr noundef %64, i32 noundef %65, i32 noundef -1, i32 noundef 0)
  store ptr %66, ptr %17, align 8
  %67 = load ptr, ptr %17, align 8
  %68 = load i32, ptr @ett_netdfs_dfs_Info6, align 4
  %69 = call ptr @proto_item_add_subtree(ptr noundef %67, i32 noundef %68)
  store ptr %69, ptr %18, align 8
  br label %70

70:                                               ; preds = %61, %57
  %71 = load ptr, ptr %9, align 8
  %72 = load i32, ptr %10, align 4
  %73 = load ptr, ptr %11, align 8
  %74 = load ptr, ptr %18, align 8
  %75 = load ptr, ptr %13, align 8
  %76 = load ptr, ptr %14, align 8
  %77 = call i32 @netdfs_dissect_element_dfs_Info6_entry_path(ptr noundef %71, i32 noundef %72, ptr noundef %73, ptr noundef %74, ptr noundef %75, ptr noundef %76)
  store i32 %77, ptr %10, align 4
  %78 = load ptr, ptr %9, align 8
  %79 = load i32, ptr %10, align 4
  %80 = load ptr, ptr %11, align 8
  %81 = load ptr, ptr %18, align 8
  %82 = load ptr, ptr %13, align 8
  %83 = load ptr, ptr %14, align 8
  %84 = call i32 @netdfs_dissect_element_dfs_Info6_comment(ptr noundef %78, i32 noundef %79, ptr noundef %80, ptr noundef %81, ptr noundef %82, ptr noundef %83)
  store i32 %84, ptr %10, align 4
  %85 = load ptr, ptr %9, align 8
  %86 = load i32, ptr %10, align 4
  %87 = load ptr, ptr %11, align 8
  %88 = load ptr, ptr %18, align 8
  %89 = load ptr, ptr %13, align 8
  %90 = load ptr, ptr %14, align 8
  %91 = call i32 @netdfs_dissect_element_dfs_Info6_state(ptr noundef %85, i32 noundef %86, ptr noundef %87, ptr noundef %88, ptr noundef %89, ptr noundef %90)
  store i32 %91, ptr %10, align 4
  %92 = load ptr, ptr %9, align 8
  %93 = load i32, ptr %10, align 4
  %94 = load ptr, ptr %11, align 8
  %95 = load ptr, ptr %18, align 8
  %96 = load ptr, ptr %13, align 8
  %97 = load ptr, ptr %14, align 8
  %98 = call i32 @netdfs_dissect_element_dfs_Info6_timeout(ptr noundef %92, i32 noundef %93, ptr noundef %94, ptr noundef %95, ptr noundef %96, ptr noundef %97)
  store i32 %98, ptr %10, align 4
  %99 = load ptr, ptr %9, align 8
  %100 = load i32, ptr %10, align 4
  %101 = load ptr, ptr %11, align 8
  %102 = load ptr, ptr %18, align 8
  %103 = load ptr, ptr %13, align 8
  %104 = load ptr, ptr %14, align 8
  %105 = call i32 @netdfs_dissect_element_dfs_Info6_guid(ptr noundef %99, i32 noundef %100, ptr noundef %101, ptr noundef %102, ptr noundef %103, ptr noundef %104)
  store i32 %105, ptr %10, align 4
  %106 = load ptr, ptr %9, align 8
  %107 = load i32, ptr %10, align 4
  %108 = load ptr, ptr %11, align 8
  %109 = load ptr, ptr %18, align 8
  %110 = load ptr, ptr %13, align 8
  %111 = load ptr, ptr %14, align 8
  %112 = call i32 @netdfs_dissect_element_dfs_Info6_flags(ptr noundef %106, i32 noundef %107, ptr noundef %108, ptr noundef %109, ptr noundef %110, ptr noundef %111)
  store i32 %112, ptr %10, align 4
  %113 = load ptr, ptr %9, align 8
  %114 = load i32, ptr %10, align 4
  %115 = load ptr, ptr %11, align 8
  %116 = load ptr, ptr %18, align 8
  %117 = load ptr, ptr %13, align 8
  %118 = load ptr, ptr %14, align 8
  %119 = call i32 @netdfs_dissect_element_dfs_Info6_pktsize(ptr noundef %113, i32 noundef %114, ptr noundef %115, ptr noundef %116, ptr noundef %117, ptr noundef %118)
  store i32 %119, ptr %10, align 4
  %120 = load ptr, ptr %9, align 8
  %121 = load i32, ptr %10, align 4
  %122 = load ptr, ptr %11, align 8
  %123 = load ptr, ptr %18, align 8
  %124 = load ptr, ptr %13, align 8
  %125 = load ptr, ptr %14, align 8
  %126 = call i32 @netdfs_dissect_element_dfs_Info6_num_stores(ptr noundef %120, i32 noundef %121, ptr noundef %122, ptr noundef %123, ptr noundef %124, ptr noundef %125)
  store i32 %126, ptr %10, align 4
  %127 = load ptr, ptr %9, align 8
  %128 = load i32, ptr %10, align 4
  %129 = load ptr, ptr %11, align 8
  %130 = load ptr, ptr %18, align 8
  %131 = load ptr, ptr %13, align 8
  %132 = load ptr, ptr %14, align 8
  %133 = call i32 @netdfs_dissect_element_dfs_Info6_stores(ptr noundef %127, i32 noundef %128, ptr noundef %129, ptr noundef %130, ptr noundef %131, ptr noundef %132)
  store i32 %133, ptr %10, align 4
  %134 = load ptr, ptr %17, align 8
  %135 = load i32, ptr %10, align 4
  %136 = load i32, ptr %19, align 4
  %137 = sub i32 %135, %136
  call void @proto_item_set_len(ptr noundef %134, i32 noundef %137)
  %138 = load ptr, ptr %13, align 8
  %139 = getelementptr inbounds nuw %struct._dcerpc_info, ptr %138, i32 0, i32 14
  %140 = load ptr, ptr %139, align 8
  %141 = getelementptr inbounds nuw %struct._dcerpc_call_value, ptr %140, i32 0, i32 11
  %142 = load i32, ptr %141, align 8
  %143 = and i32 %142, 1
  %144 = icmp ne i32 %143, 0
  br i1 %144, label %145, label %184

145:                                              ; preds = %70
  %146 = load ptr, ptr %13, align 8
  %147 = getelementptr inbounds nuw %struct._dcerpc_info, ptr %146, i32 0, i32 14
  %148 = load ptr, ptr %147, align 8
  %149 = getelementptr inbounds nuw %struct._dcerpc_call_value, ptr %148, i32 0, i32 11
  %150 = load i32, ptr %149, align 8
  %151 = and i32 %150, 1
  %152 = icmp ne i32 %151, 0
  br i1 %152, label %153, label %168

153:                                              ; preds = %145
  %154 = load ptr, ptr %13, align 8
  %155 = getelementptr inbounds nuw %struct._dcerpc_info, ptr %154, i32 0, i32 4
  %156 = load i8, ptr %155, align 1, !range !6, !noundef !7
  %157 = trunc i8 %156 to i1
  br i1 %157, label %167, label %158

158:                                              ; preds = %153
  %159 = load i32, ptr %10, align 4
  %160 = and i32 %159, 7
  %161 = icmp ne i32 %160, 0
  br i1 %161, label %162, label %166

162:                                              ; preds = %158
  %163 = load i32, ptr %10, align 4
  %164 = and i32 %163, -8
  %165 = add i32 %164, 8
  store i32 %165, ptr %10, align 4
  br label %166

166:                                              ; preds = %162, %158
  br label %167

167:                                              ; preds = %166, %153
  br label %183

168:                                              ; preds = %145
  %169 = load ptr, ptr %13, align 8
  %170 = getelementptr inbounds nuw %struct._dcerpc_info, ptr %169, i32 0, i32 4
  %171 = load i8, ptr %170, align 1, !range !6, !noundef !7
  %172 = trunc i8 %171 to i1
  br i1 %172, label %182, label %173

173:                                              ; preds = %168
  %174 = load i32, ptr %10, align 4
  %175 = and i32 %174, 3
  %176 = icmp ne i32 %175, 0
  br i1 %176, label %177, label %181

177:                                              ; preds = %173
  %178 = load i32, ptr %10, align 4
  %179 = and i32 %178, -4
  %180 = add i32 %179, 4
  store i32 %180, ptr %10, align 4
  br label %181

181:                                              ; preds = %177, %173
  br label %182

182:                                              ; preds = %181, %168
  br label %183

183:                                              ; preds = %182, %167
  br label %184

184:                                              ; preds = %183, %70
  %185 = load i32, ptr %10, align 4
  call void @llvm.lifetime.end.p0(i64 4, ptr %19) #4
  call void @llvm.lifetime.end.p0(i64 8, ptr %18) #4
  call void @llvm.lifetime.end.p0(i64 8, ptr %17) #4
  ret i32 %185
}