; Function Attrs: null_pointer_is_valid sspstrong uwtable
define hidden i32 @netdfs_dissect_struct_dfs_Info6(ptr noundef %0, i32 noundef %1, ptr noundef %2, ptr noundef %3, ptr noundef %4, ptr noundef %5, i32 noundef %6, i32 %7) local_unnamed_addr #0 {
  %9 = getelementptr inbounds nuw i8, ptr %4, i64 64
  %10 = load ptr, ptr %9, align 8
  %11 = getelementptr inbounds nuw i8, ptr %10, i64 96
  %12 = load i32, ptr %11, align 8
  %13 = and i32 %12, 1
  %.not = icmp eq i32 %13, 0
  %14 = getelementptr inbounds nuw i8, ptr %4, i64 25
  %15 = load i8, ptr %14, align 1, !range !6, !noundef !7
  %16 = trunc nuw i8 %15 to i1
  br i1 %.not, label %22, label %17

17:                                               ; preds = %8
  %18 = and i32 %1, 7
  %.not83 = icmp eq i32 %18, 0
  %or.cond = or i1 %.not83, %16
  br i1 %or.cond, label %27, label %19

19:                                               ; preds = %17
  %20 = and i32 %1, -8
  %21 = add i32 %20, 8
  br label %27

22:                                               ; preds = %8
  %23 = and i32 %1, 3
  %.not82 = icmp eq i32 %23, 0
  %or.cond87 = or i1 %.not82, %16
  br i1 %or.cond87, label %27, label %24

24:                                               ; preds = %22
  %25 = and i32 %1, -4
  %26 = add i32 %25, 4
  br label %27

27:                                               ; preds = %22, %24, %17, %19
  %.0 = phi i32 [ %1, %17 ], [ %21, %19 ], [ %1, %22 ], [ %26, %24 ]
  %.not84 = icmp eq ptr %3, null
  br i1 %.not84, label %32, label %28

28:                                               ; preds = %27
  %29 = tail call ptr @proto_tree_add_item(ptr noundef nonnull %3, i32 noundef %6, ptr noundef %0, i32 noundef %.0, i32 noundef -1, i32 noundef 0)
  %30 = load i32, ptr @ett_netdfs_dfs_Info6, align 4
  %31 = tail call ptr @proto_item_add_subtree(ptr noundef %29, i32 noundef %30)
  br label %32

32:                                               ; preds = %28, %27
  %.080 = phi ptr [ %29, %28 ], [ null, %27 ]
  %.079 = phi ptr [ %31, %28 ], [ null, %27 ]
  %33 = load i32, ptr @hf_netdfs_dfs_Info6_entry_path, align 4
  %34 = tail call i32 @dissect_ndr_embedded_pointer(ptr noundef %0, i32 noundef %.0, ptr noundef %2, ptr noundef %.079, ptr noundef %4, ptr noundef %5, ptr noundef nonnull @netdfs_dissect_element_dfs_Info6_entry_path_, i32 noundef 2, ptr noundef nonnull @.str.266, i32 noundef %33)
  %35 = load i32, ptr @hf_netdfs_dfs_Info6_comment, align 4
  %36 = tail call i32 @dissect_ndr_embedded_pointer(ptr noundef %0, i32 noundef %34, ptr noundef %2, ptr noundef %.079, ptr noundef %4, ptr noundef %5, ptr noundef nonnull @netdfs_dissect_element_dfs_Info6_comment_, i32 noundef 2, ptr noundef nonnull @.str.262, i32 noundef %35)
  %37 = load i32, ptr @hf_netdfs_dfs_Info6_state, align 4
  %38 = tail call i32 @netdfs_dissect_bitmap_dfs_VolumeState(ptr noundef %0, i32 noundef %36, ptr noundef %2, ptr noundef %.079, ptr noundef %4, ptr noundef %5, i32 noundef %37, i32 poison)
  %39 = load i32, ptr @hf_netdfs_dfs_Info6_timeout, align 4
  %40 = tail call i32 @PIDL_dissect_uint32(ptr noundef %0, i32 noundef %38, ptr noundef %2, ptr noundef %.079, ptr noundef %4, ptr noundef %5, i32 noundef %39, i32 noundef 0)
  %41 = load i32, ptr @hf_netdfs_dfs_Info6_guid, align 4
  %42 = tail call i32 @dissect_ndr_uuid_t(ptr noundef %0, i32 noundef %40, ptr noundef %2, ptr noundef %.079, ptr noundef %4, ptr noundef %5, i32 noundef %41, ptr noundef null)
  %43 = load i32, ptr @hf_netdfs_dfs_Info6_flags, align 4
  %44 = tail call i32 @netdfs_dissect_bitmap_dfs_PropertyFlags(ptr noundef %0, i32 noundef %42, ptr noundef %2, ptr noundef %.079, ptr noundef %4, ptr noundef %5, i32 noundef %43, i32 poison)
  %45 = load i32, ptr @hf_netdfs_dfs_Info6_pktsize, align 4
  %46 = tail call i32 @PIDL_dissect_uint32(ptr noundef %0, i32 noundef %44, ptr noundef %2, ptr noundef %.079, ptr noundef %4, ptr noundef %5, i32 noundef %45, i32 noundef 0)
  %47 = load i32, ptr @hf_netdfs_dfs_Info6_num_stores, align 4
  %48 = tail call i32 @PIDL_dissect_uint16(ptr noundef %0, i32 noundef %46, ptr noundef %2, ptr noundef %.079, ptr noundef %4, ptr noundef %5, i32 noundef %47, i32 noundef 0)
  %49 = load i32, ptr @hf_netdfs_dfs_Info6_stores, align 4
  %50 = tail call i32 @dissect_ndr_embedded_pointer(ptr noundef %0, i32 noundef %48, ptr noundef %2, ptr noundef %.079, ptr noundef %4, ptr noundef %5, ptr noundef nonnull @netdfs_dissect_element_dfs_Info6_stores_, i32 noundef 2, ptr noundef nonnull @.str.267, i32 noundef %49)
  %51 = sub i32 %50, %.0
  tail call void @proto_item_set_len(ptr noundef %.080, i32 noundef %51)
  %52 = load ptr, ptr %9, align 8
  %53 = getelementptr inbounds nuw i8, ptr %52, i64 96
  %54 = load i32, ptr %53, align 8
  %55 = and i32 %54, 1
  %.not85 = icmp eq i32 %55, 0
  br i1 %.not85, label %64, label %56

56:                                               ; preds = %32
  %57 = getelementptr inbounds nuw i8, ptr %4, i64 25
  %58 = load i8, ptr %57, align 1, !range !6, !noundef !7
  %59 = trunc nuw i8 %58 to i1
  %60 = and i32 %50, 7
  %.not86 = icmp eq i32 %60, 0
  %or.cond88 = or i1 %.not86, %59
  br i1 %or.cond88, label %64, label %61

61:                                               ; preds = %56
  %62 = and i32 %50, -8
  %63 = add i32 %62, 8
  br label %64

64:                                               ; preds = %61, %56, %32
  %.1 = phi i32 [ %50, %56 ], [ %63, %61 ], [ %50, %32 ]
  ret i32 %.1
}